target datalayout = "e-m:e-p270:32:32-p271:32:32-p272:64:64-i64:64-i128:128-f80:128-n8:16:32:64-S128"
target triple = "x86_64-pc-linux-gnu"

@hf_giop_sequence_length = internal global i32 0, align 4
@hf_giop_endianness = internal global i32 0, align 4

; Function Attrs: null_pointer_is_valid sspstrong uwtable
define zeroext i8 @get_CDR_octet(ptr noundef %0, ptr noundef %1) #0 {
  %3 = alloca ptr, align 8
  %4 = alloca ptr, align 8
  %5 = alloca i8, align 1
  store ptr %0, ptr %3, align 8
  store ptr %1, ptr %4, align 8
  call void @llvm.lifetime.start.p0(i64 1, ptr %5) #14
  %6 = load ptr, ptr %3, align 8
  %7 = load ptr, ptr %4, align 8
  %8 = load i32, ptr %7, align 4
  %9 = call zeroext i8 @tvb_get_uint8(ptr noundef %6, i32 noundef %8)
  store i8 %9, ptr %5, align 1
  %10 = load ptr, ptr %4, align 8
  %11 = load i32, ptr %10, align 4
  %12 = add i32 %11, 1
  store i32 %12, ptr %10, align 4
  %13 = load i8, ptr %5, align 1
  call void @llvm.lifetime.end.p0(i64 1, ptr %5) #14
  ret i8 %13
}

; Function Attrs: null_pointer_is_valid sspstrong uwtable
define i32 @get_CDR_ulong(ptr noundef %0, ptr noundef %1, i1 noundef zeroext %2, i32 noundef %3) #0 {
  %5 = alloca ptr, align 8
  %6 = alloca ptr, align 8
  %7 = alloca i8, align 1
  %8 = alloca i32, align 4
  %9 = alloca i32, align 4
  store ptr %0, ptr %5, align 8
  store ptr %1, ptr %6, align 8
  %10 = zext i1 %2 to i8
  store i8 %10, ptr %7, align 1
  store i32 %3, ptr %8, align 4
  call void @llvm.lifetime.start.p0(i64 4, ptr %9) #14
  br label %11

11:                                               ; preds = %18, %4
  %12 = load ptr, ptr %6, align 8
  %13 = load i32, ptr %12, align 4
  %14 = load i32, ptr %8, align 4
  %15 = add i32 %13, %14
  %16 = srem i32 %15, 4
  %17 = icmp ne i32 %16, 0
  br i1 %17, label %18, label %22

18:                                               ; preds = %11
  %19 = load ptr, ptr %6, align 8
  %20 = load i32, ptr %19, align 4
  %21 = add i32 %20, 1
  store i32 %21, ptr %19, align 4
  br label %11, !llvm.loop !10

22:                                               ; preds = %11
  %23 = load i8, ptr %7, align 1, !range !8, !noundef !9
  %24 = trunc i8 %23 to i1
  br i1 %24, label %25, label %30

25:                                               ; preds = %22
  %26 = load ptr, ptr %5, align 8
  %27 = load ptr, ptr %6, align 8
  %28 = load i32, ptr %27, align 4
  %29 = call i32 @tvb_get_ntohl(ptr noundef %26, i32 noundef %28)
  br label %35

30:                                               ; preds = %22
  %31 = load ptr, ptr %5, align 8
  %32 = load ptr, ptr %6, align 8
  %33 = load i32, ptr %32, align 4
  %34 = call i32 @tvb_get_letohl(ptr noundef %31, i32 noundef %33)
  br label %35

35:                                               ; preds = %30, %25
  %36 = phi i32 [ %29, %25 ], [ %34, %30 ]
  store i32 %36, ptr %9, align 4
  %37 = load ptr, ptr %6, align 8
  %38 = load i32, ptr %37, align 4
  %39 = add i32 %38, 4
  store i32 %39, ptr %37, align 4
  %40 = load i32, ptr %9, align 4
  call void @llvm.lifetime.end.p0(i64 4, ptr %9) #14
  ret i32 %40
}

; Function Attrs: null_pointer_is_valid sspstrong uwtable
define i32 @get_CDR_encap_info(ptr noundef %0, ptr noundef %1, ptr noundef %2, i1 noundef zeroext %3, i32 noundef %4, ptr noundef %5, ptr noundef %6) #0 {
  %8 = alloca i32, align 4
  %9 = alloca ptr, align 8
  %10 = alloca ptr, align 8
  %11 = alloca ptr, align 8
  %12 = alloca i8, align 1
  %13 = alloca i32, align 4
  %14 = alloca ptr, align 8
  %15 = alloca ptr, align 8
  %16 = alloca i32, align 4
  %17 = alloca i8, align 1
  %18 = alloca i32, align 4
  store ptr %0, ptr %9, align 8
  store ptr %1, ptr %10, align 8
  store ptr %2, ptr %11, align 8
  %19 = zext i1 %3 to i8
  store i8 %19, ptr %12, align 1
  store i32 %4, ptr %13, align 4
  store ptr %5, ptr %14, align 8
  store ptr %6, ptr %15, align 8
  call void @llvm.lifetime.start.p0(i64 4, ptr %16) #14
  call void @llvm.lifetime.start.p0(i64 1, ptr %17) #14
  %20 = load ptr, ptr %9, align 8
  %21 = load ptr, ptr %11, align 8
  %22 = load i8, ptr %12, align 1, !range !8, !noundef !9
  %23 = trunc i8 %22 to i1
  %24 = load i32, ptr %13, align 4
  %25 = call i32 @get_CDR_ulong(ptr noundef %20, ptr noundef %21, i1 noundef zeroext %23, i32 noundef %24)
  store i32 %25, ptr %16, align 4
  %26 = load ptr, ptr %10, align 8
  %27 = load i32, ptr @hf_giop_sequence_length, align 4
  %28 = load ptr, ptr %9, align 8
  %29 = load ptr, ptr %11, align 8
  %30 = load i32, ptr %29, align 4
  %31 = sub i32 %30, 4
  %32 = load i32, ptr %16, align 4
  %33 = call ptr @proto_tree_add_uint(ptr noundef %26, i32 noundef %27, ptr noundef %28, i32 noundef %31, i32 noundef 4, i32 noundef %32)
  %34 = load i32, ptr %16, align 4
  %35 = icmp eq i32 %34, 0
  br i1 %35, label %36, label %44

36:                                               ; preds = %7
  %37 = load i32, ptr %13, align 4
  %38 = load ptr, ptr %15, align 8
  store i32 %37, ptr %38, align 4
  %39 = load i8, ptr %12, align 1, !range !8, !noundef !9
  %40 = trunc i8 %39 to i1
  %41 = load ptr, ptr %14, align 8
  %42 = zext i1 %40 to i8
  store i8 %42, ptr %41, align 1
  %43 = load i32, ptr %16, align 4
  store i32 %43, ptr %8, align 4
  store i32 1, ptr %18, align 4
  br label %66

44:                                               ; preds = %7
  %45 = load ptr, ptr %11, align 8
  %46 = load i32, ptr %45, align 4
  %47 = load ptr, ptr %15, align 8
  store i32 %46, ptr %47, align 4
  %48 = load ptr, ptr %9, align 8
  %49 = load ptr, ptr %11, align 8
  %50 = call zeroext i8 @get_CDR_octet(ptr noundef %48, ptr noundef %49)
  store i8 %50, ptr %17, align 1
  %51 = load i8, ptr %17, align 1
  %52 = icmp ne i8 %51, 0
  %53 = xor i1 %52, true
  %54 = load ptr, ptr %14, align 8
  %55 = zext i1 %53 to i8
  store i8 %55, ptr %54, align 1
  %56 = load ptr, ptr %10, align 8
  %57 = load i32, ptr @hf_giop_endianness, align 4
  %58 = load ptr, ptr %9, align 8
  %59 = load ptr, ptr %11, align 8
  %60 = load i32, ptr %59, align 4
  %61 = sub i32 %60, 1
  %62 = load i8, ptr %17, align 1
  %63 = zext i8 %62 to i32
  %64 = call ptr @proto_tree_add_uint(ptr noundef %56, i32 noundef %57, ptr noundef %58, i32 noundef %61, i32 noundef 1, i32 noundef %63)
  %65 = load i32, ptr %16, align 4
  store i32 %65, ptr %8, align 4
  store i32 1, ptr %18, align 4
  br label %66

66:                                               ; preds = %44, %36
  call void @llvm.lifetime.end.p0(i64 1, ptr %17) #14
  call void @llvm.lifetime.end.p0(i64 4, ptr %16) #14
  %67 = load i32, ptr %8, align 4
  ret i32 %67
}