; Function Attrs: null_pointer_is_valid sspstrong uwtable
define noundef i32 @get_CDR_encap_info(ptr noundef %0, ptr noundef %1, ptr noundef captures(none) %2, i1 noundef zeroext %3, i32 noundef %4, ptr noundef writeonly captures(none) initializes((0, 1)) %5, ptr noundef writeonly captures(none) initializes((0, 4)) %6) local_unnamed_addr #0 {
  %.promoted.i = load i32, ptr %2, align 4
  %8 = add i32 %.promoted.i, %4
  %9 = and i32 %8, 3
  %.not9.i = icmp eq i32 %9, 0
  br i1 %.not9.i, label %11, label %.lr.ph.preheader.i

.lr.ph.preheader.i:                               ; preds = %7
  %10 = or i32 %8, -4
  %sub = sub i32 %.promoted.i, %10
  store i32 %sub, ptr %2, align 4
  br label %11

11:                                               ; preds = %.lr.ph.preheader.i, %7
  %.lcssa.i = phi i32 [ %sub, %.lr.ph.preheader.i ], [ %.promoted.i, %7 ]
  br i1 %3, label %12, label %14

12:                                               ; preds = %11
  %13 = tail call i32 @tvb_get_ntohl(ptr noundef %0, i32 noundef %.lcssa.i)
  br label %get_CDR_ulong.exit

14:                                               ; preds = %11
  %15 = tail call i32 @tvb_get_letohl(ptr noundef %0, i32 noundef %.lcssa.i)
  br label %get_CDR_ulong.exit

get_CDR_ulong.exit:                               ; preds = %12, %14
  %16 = phi i32 [ %13, %12 ], [ %15, %14 ]
  %17 = load i32, ptr %2, align 4
  %18 = add i32 %17, 4
  store i32 %18, ptr %2, align 4
  %19 = load i32, ptr @hf_giop_sequence_length, align 4
  %20 = tail call ptr @proto_tree_add_uint(ptr noundef %1, i32 noundef %19, ptr noundef %0, i32 noundef %17, i32 noundef 4, i32 noundef %16)
  %21 = icmp eq i32 %16, 0
  br i1 %21, label %22, label %24

22:                                               ; preds = %get_CDR_ulong.exit
  %23 = zext i1 %3 to i8
  store i32 %4, ptr %6, align 4
  store i8 %23, ptr %5, align 1
  br label %35

24:                                               ; preds = %get_CDR_ulong.exit
  %25 = load i32, ptr %2, align 4
  store i32 %25, ptr %6, align 4
  %26 = tail call zeroext i8 @tvb_get_uint8(ptr noundef %0, i32 noundef %25)
  %27 = load i32, ptr %2, align 4
  %28 = add i32 %27, 1
  store i32 %28, ptr %2, align 4
  %.not = icmp eq i8 %26, 0
  %29 = zext i1 %.not to i8
  store i8 %29, ptr %5, align 1
  %30 = load i32, ptr @hf_giop_endianness, align 4
  %31 = load i32, ptr %2, align 4
  %32 = add i32 %31, -1
  %33 = zext i8 %26 to i32
  %34 = tail call ptr @proto_tree_add_uint(ptr noundef %1, i32 noundef %30, ptr noundef %0, i32 noundef %32, i32 noundef 1, i32 noundef %33)
  br label %35

35:                                               ; preds = %24, %22
  ret i32 %16
}